; Function Attrs: mustprogress uwtable
define hidden void @_ZNK19OpenColorIO_v2_4dev18RangeTransformImpl8validateEv(ptr noundef nonnull align 8 dereferenceable(248) %this) unnamed_addr #3 align 2 personality ptr @__gxx_personality_v0 {
entry:
  %errMsg = alloca %"class.std::__cxx11::basic_string", align 8
  %ref.tmp = alloca %"class.std::allocator", align 1
  invoke void @_ZNK19OpenColorIO_v2_4dev9Transform8validateEv(ptr noundef nonnull align 8 dereferenceable(8) %this)
          to label %invoke.cont unwind label %lpad

invoke.cont:                                      ; preds = %entry
  %m_data.i = getelementptr inbounds i8, ptr %this, i64 16
  %vtable = load ptr, ptr %m_data.i, align 8
  %vfn = getelementptr inbounds i8, ptr %vtable, i64 16
  %0 = load ptr, ptr %vfn, align 8
  invoke void %0(ptr noundef nonnull align 8 dereferenceable(228) %m_data.i)
          to label %invoke.cont2 unwind label %lpad

invoke.cont2:                                     ; preds = %invoke.cont
  %m_style = getelementptr inbounds i8, ptr %this, i64 8
  %1 = load i32, ptr %m_style, align 8
  %cmp = icmp eq i32 %1, 0
  br i1 %cmp, label %if.then, label %try.cont

if.then:                                          ; preds = %invoke.cont2
  %call5 = invoke noundef zeroext i1 @_ZNK19OpenColorIO_v2_4dev11RangeOpData10minIsEmptyEv(ptr noundef nonnull align 8 dereferenceable(228) %m_data.i)
          to label %invoke.cont4 unwind label %lpad

invoke.cont4:                                     ; preds = %if.then
  br i1 %call5, label %if.then9, label %lor.lhs.false

lor.lhs.false:                                    ; preds = %invoke.cont4
  %call8 = invoke noundef zeroext i1 @_ZNK19OpenColorIO_v2_4dev11RangeOpData10maxIsEmptyEv(ptr noundef nonnull align 8 dereferenceable(228) %m_data.i)
          to label %invoke.cont7 unwind label %lpad

invoke.cont7:                                     ; preds = %lor.lhs.false
  br i1 %call8, label %if.then9, label %try.cont

if.then9:                                         ; preds = %invoke.cont7, %invoke.cont4
  %exception = tail call ptr @__cxa_allocate_exception(i64 16) #18
  invoke void @_ZN19OpenColorIO_v2_4dev9ExceptionC1EPKc(ptr noundef nonnull align 8 dereferenceable(16) %exception, ptr noundef nonnull @.str)
          to label %invoke.cont11 unwind label %lpad10

invoke.cont11:                                    ; preds = %if.then9
  invoke void @__cxa_throw(ptr nonnull %exception, ptr nonnull @_ZTIN19OpenColorIO_v2_4dev9ExceptionE, ptr nonnull @_ZN19OpenColorIO_v2_4dev9ExceptionD1Ev) #19
          to label %unreachable unwind label %lpad

lpad:                                             ; preds = %invoke.cont11, %lor.lhs.false, %if.then, %invoke.cont, %entry
  %2 = landingpad { ptr, i32 }
          catch ptr @_ZTIN19OpenColorIO_v2_4dev9ExceptionE
  br label %catch.dispatch

lpad10:                                           ; preds = %if.then9
  %3 = landingpad { ptr, i32 }
          cleanup
          catch ptr @_ZTIN19OpenColorIO_v2_4dev9ExceptionE
  tail call void @__cxa_free_exception(ptr %exception) #18
  br label %catch.dispatch

catch.dispatch:                                   ; preds = %lpad10, %lpad
  %.pn = phi { ptr, i32 } [ %2, %lpad ], [ %3, %lpad10 ]
  %ehselector.slot.0 = extractvalue { ptr, i32 } %.pn, 1
  %4 = tail call i32 @llvm.eh.typeid.for(ptr nonnull @_ZTIN19OpenColorIO_v2_4dev9ExceptionE) #18
  %matches = icmp eq i32 %ehselector.slot.0, %4
  br i1 %matches, label %catch, label %eh.resume

catch:                                            ; preds = %catch.dispatch
  %exn.slot.0 = extractvalue { ptr, i32 } %.pn, 0
  %5 = tail call ptr @__cxa_begin_catch(ptr %exn.slot.0) #18
  call void @_ZNSaIcEC1Ev(ptr noundef nonnull align 1 dereferenceable(1) %ref.tmp) #18
  invoke void @_ZNSt7__cxx1112basic_stringIcSt11char_traitsIcESaIcEEC1EPKcRKS3_(ptr noundef nonnull align 8 dereferenceable(32) %errMsg, ptr noundef nonnull @.str.1, ptr noundef nonnull align 1 dereferenceable(1) %ref.tmp)
          to label %invoke.cont14 unwind label %lpad13

invoke.cont14:                                    ; preds = %catch
  call void @_ZNSaIcED1Ev(ptr noundef nonnull align 1 dereferenceable(1) %ref.tmp) #18
  %vtable15 = load ptr, ptr %5, align 8
  %vfn16 = getelementptr inbounds i8, ptr %vtable15, i64 16
  %6 = load ptr, ptr %vfn16, align 8
  %call17 = call noundef ptr %6(ptr noundef nonnull align 8 dereferenceable(16) %5) #18
  %call20 = invoke noundef nonnull align 8 dereferenceable(32) ptr @_ZNSt7__cxx1112basic_stringIcSt11char_traitsIcESaIcEEpLEPKc(ptr noundef nonnull align 8 dereferenceable(32) %errMsg, ptr noundef %call17)
          to label %invoke.cont19 unwind label %lpad18

invoke.cont19:                                    ; preds = %invoke.cont14
  %exception21 = call ptr @__cxa_allocate_exception(i64 16) #18
  %call22 = call noundef ptr @_ZNKSt7__cxx1112basic_stringIcSt11char_traitsIcESaIcEE5c_strEv(ptr noundef nonnull align 8 dereferenceable(32) %errMsg) #18
  invoke void @_ZN19OpenColorIO_v2_4dev9ExceptionC1EPKc(ptr noundef nonnull align 8 dereferenceable(16) %exception21, ptr noundef %call22)
          to label %invoke.cont24 unwind label %lpad23

invoke.cont24:                                    ; preds = %invoke.cont19
  invoke void @__cxa_throw(ptr nonnull %exception21, ptr nonnull @_ZTIN19OpenColorIO_v2_4dev9ExceptionE, ptr nonnull @_ZN19OpenColorIO_v2_4dev9ExceptionD1Ev) #19
          to label %unreachable unwind label %lpad18

lpad13:                                           ; preds = %catch
  %7 = landingpad { ptr, i32 }
          cleanup
  call void @_ZNSaIcED1Ev(ptr noundef nonnull align 1 dereferenceable(1) %ref.tmp) #18
  br label %ehcleanup25

lpad18:                                           ; preds = %invoke.cont24, %invoke.cont14
  %8 = landingpad { ptr, i32 }
          cleanup
  br label %ehcleanup

lpad23:                                           ; preds = %invoke.cont19
  %9 = landingpad { ptr, i32 }
          cleanup
  call void @__cxa_free_exception(ptr %exception21) #18
  br label %ehcleanup

ehcleanup:                                        ; preds = %lpad23, %lpad18
  %.pn3 = phi { ptr, i32 } [ %8, %lpad18 ], [ %9, %lpad23 ]
  call void @_ZNSt7__cxx1112basic_stringIcSt11char_traitsIcESaIcEED1Ev(ptr noundef nonnull align 8 dereferenceable(32) %errMsg) #18
  br label %ehcleanup25

ehcleanup25:                                      ; preds = %ehcleanup, %lpad13
  %.pn3.pn = phi { ptr, i32 } [ %.pn3, %ehcleanup ], [ %7, %lpad13 ]
  invoke void @__cxa_end_catch()
          to label %eh.resume unwind label %terminate.lpad

try.cont:                                         ; preds = %invoke.cont2, %invoke.cont7
  ret void

eh.resume:                                        ; preds = %ehcleanup25, %catch.dispatch
  %lpad.val29.merged = phi { ptr, i32 } [ %.pn3.pn, %ehcleanup25 ], [ %.pn, %catch.dispatch ]
  resume { ptr, i32 } %lpad.val29.merged

terminate.lpad:                                   ; preds = %ehcleanup25
  %10 = landingpad { ptr, i32 }
          catch ptr null
  %11 = extractvalue { ptr, i32 } %10, 0
  call void @__clang_call_terminate(ptr %11) #20
  unreachable

unreachable:                                      ; preds = %invoke.cont24, %invoke.cont11
  unreachable
}